; Function Attrs: mustprogress uwtable
define hidden noundef zeroext i1 @_ZN11bv_rewriter20is_minus_one_times_tEP4expr(ptr noundef nonnull align 8 dereferenceable(157) %0, ptr noundef readonly captures(none) %1) local_unnamed_addr #3 align 2 {
  %3 = getelementptr inbounds nuw i8, ptr %0, i64 8
  %4 = load i32, ptr %3, align 8, !tbaa !75
  %5 = getelementptr inbounds nuw i8, ptr %1, i64 4
  %6 = load i32, ptr %5, align 4
  %7 = and i32 %6, 65535
  %8 = icmp eq i32 %7, 0
  br i1 %8, label %9, label %_ZNK14bv_recognizers9is_bv_mulEPK4exprRPS0_S4_.exit.thread

9:                                                ; preds = %2
  %10 = getelementptr inbounds nuw i8, ptr %1, i64 16
  %11 = load ptr, ptr %10, align 8, !tbaa !78
  %12 = getelementptr inbounds nuw i8, ptr %11, i64 24
  %13 = load ptr, ptr %12, align 8, !tbaa !57
  %.not.i.i.i.i.i = icmp eq ptr %13, null
  br i1 %.not.i.i.i.i.i, label %_ZNK14bv_recognizers9is_bv_mulEPK4exprRPS0_S4_.exit.thread, label %_ZNK14bv_recognizers9is_bv_mulEPK4expr.exit.i

_ZNK14bv_recognizers9is_bv_mulEPK4expr.exit.i:    ; preds = %9
  %14 = load i32, ptr %13, align 8, !tbaa !82
  %15 = icmp eq i32 %14, %4
  %16 = getelementptr inbounds nuw i8, ptr %13, i64 4
  %17 = load i32, ptr %16, align 4
  %18 = icmp eq i32 %17, 6
  %19 = select i1 %15, i1 %18, i1 false
  br i1 %19, label %20, label %_ZNK14bv_recognizers9is_bv_mulEPK4exprRPS0_S4_.exit.thread

20:                                               ; preds = %_ZNK14bv_recognizers9is_bv_mulEPK4expr.exit.i
  %21 = getelementptr inbounds nuw i8, ptr %1, i64 24
  %22 = load i32, ptr %21, align 8, !tbaa !83
  %23 = icmp eq i32 %22, 2
  br i1 %23, label %24, label %_ZNK14bv_recognizers9is_bv_mulEPK4exprRPS0_S4_.exit.thread

24:                                               ; preds = %20
  %25 = getelementptr inbounds nuw i8, ptr %1, i64 32
  %26 = load ptr, ptr %25, align 8, !tbaa !67
  %27 = tail call noundef zeroext i1 @_ZNK14bv_recognizers9is_alloneEPK4expr(ptr noundef nonnull align 4 dereferenceable(4) %3, ptr noundef %26)
  br label %_ZNK14bv_recognizers9is_bv_mulEPK4exprRPS0_S4_.exit.thread

_ZNK14bv_recognizers9is_bv_mulEPK4exprRPS0_S4_.exit.thread: ; preds = %9, %2, %_ZNK14bv_recognizers9is_bv_mulEPK4expr.exit.i, %20, %24
  %28 = phi i1 [ %27, %24 ], [ false, %20 ], [ false, %_ZNK14bv_recognizers9is_bv_mulEPK4expr.exit.i ], [ false, %2 ], [ false, %9 ]
  ret i1 %28
}